; ModuleID = 'bench/sdl/original/SDL_strtokr.ll'
source_filename = "bench/sdl/original/SDL_strtokr.ll"
target datalayout = "e-m:e-p270:32:32-p271:32:32-p272:64:64-i64:64-i128:128-f80:128-n8:16:32:64-S128"
target triple = "x86_64-pc-linux-gnu"

; Function Attrs: mustprogress nofree norecurse nounwind willreturn uwtable
define hidden ptr @SDL_strtok_r_REAL(ptr noundef %0, ptr noundef readonly captures(none) %1, ptr noundef %2) local_unnamed_addr #0 {
  %4 = tail call ptr @strtok_r(ptr noundef %0, ptr noundef %1, ptr noundef %2) #2
  ret ptr %4
}

; Function Attrs: mustprogress nocallback nofree nounwind willreturn
declare ptr @strtok_r(ptr noundef, ptr noundef readonly captures(none), ptr noundef) local_unnamed_addr #1


!llvm.module.flags = !{!0, !1, !2}

!0 = !{i32 1, !"wchar_size", i32 4}
!1 = !{i32 8, !"PIC Level", i32 2}
!2 = !{i32 7, !"uwtable", i32 2}
